; Function Attrs: nounwind sspstrong uwtable
define internal i64 @path_lutime(i64 noundef %0, i64 noundef %1, i64 noundef %2) #0 {
  %4 = load i64, ptr @rb_cFile, align 8, !tbaa !6
  %5 = load i64, ptr @id_lutime, align 8, !tbaa !6
  %6 = load i64, ptr @id_at_path, align 8, !tbaa !6
  %7 = tail call i64 @rb_ivar_get(i64 noundef %0, i64 noundef %6) #7
  %8 = icmp eq i64 %7, 0
  %9 = and i64 %7, 7
  %10 = icmp ne i64 %9, 0
  %11 = or i1 %8, %10
  br i1 %11, label %rbimpl_RB_TYPE_P_fastpath.exit.thread.i, label %rbimpl_RB_TYPE_P_fastpath.exit.i

rbimpl_RB_TYPE_P_fastpath.exit.i:                 ; preds = %3
  %12 = inttoptr i64 %7 to ptr
  %13 = load i64, ptr %12, align 8, !tbaa !10
  %14 = and i64 %13, 31
  %15 = icmp eq i64 %14, 5
  br i1 %15, label %get_strpath.exit, label %rbimpl_RB_TYPE_P_fastpath.exit.thread.i

rbimpl_RB_TYPE_P_fastpath.exit.thread.i:          ; preds = %rbimpl_RB_TYPE_P_fastpath.exit.i, %3
  %16 = load i64, ptr @rb_eTypeError, align 8, !tbaa !6
  tail call void (i64, ptr, ...) @rb_raise(i64 noundef %16, ptr noundef nonnull @.str.91) #9
  unreachable

get_strpath.exit:                                 ; preds = %rbimpl_RB_TYPE_P_fastpath.exit.i
  %17 = tail call i64 (i64, i64, i32, ...) @rb_funcall(i64 noundef %4, i64 noundef %5, i32 noundef 3, i64 noundef %1, i64 noundef %2, i64 noundef %7) #7
  ret i64 %17
}